target datalayout = "e-m:e-p270:32:32-p271:32:32-p272:64:64-i64:64-i128:128-f80:128-n8:16:32:64-S128"
target triple = "x86_64-pc-linux-gnu"

%"class.std::chrono::duration" = type { i64 }
%"class.cvc5::internal::WallClockTimer" = type { %"class.std::chrono::time_point", %"class.std::chrono::time_point" }
%"class.std::chrono::time_point" = type { %"class.std::chrono::duration" }
%"struct.cvc5::internal::ResourceManager::Statistics" = type { %"class.cvc5::internal::ReferenceStat", %"class.cvc5::internal::IntStat", %"class.cvc5::internal::HistogramStat", %"class.cvc5::internal::HistogramStat.1" }
%"class.cvc5::internal::ReferenceStat" = type { ptr }
%"class.cvc5::internal::IntStat" = type { %"class.cvc5::internal::ValueStat" }
%"class.cvc5::internal::ValueStat" = type { ptr }
%"class.cvc5::internal::HistogramStat" = type { ptr }
%"class.cvc5::internal::HistogramStat.1" = type { ptr }
%"class.cvc5::internal::ResourceManager" = type { ptr, i8, %"class.cvc5::internal::WallClockTimer", i64, i64, i64, i64, %"class.std::vector", %"struct.std::array", %"struct.std::array.10", %"class.std::unique_ptr.11" }
%"class.std::vector" = type { %"struct.std::_Vector_base" }
%"struct.std::_Vector_base" = type { %"struct.std::_Vector_base<cvc5::internal::Listener *, std::allocator<cvc5::internal::Listener *>>::_Vector_impl" }
%"struct.std::_Vector_base<cvc5::internal::Listener *, std::allocator<cvc5::internal::Listener *>>::_Vector_impl" = type { %"struct.std::_Vector_base<cvc5::internal::Listener *, std::allocator<cvc5::internal::Listener *>>::_Vector_impl_data" }
%"struct.std::_Vector_base<cvc5::internal::Listener *, std::allocator<cvc5::internal::Listener *>>::_Vector_impl_data" = type { ptr, ptr, ptr }
%"struct.std::array" = type { [392 x i64] }
%"struct.std::array.10" = type { [20 x i64] }
%"class.std::unique_ptr.11" = type { %"struct.std::__uniq_ptr_data.12" }
%"struct.std::__uniq_ptr_data.12" = type { %"class.std::__uniq_ptr_impl.13" }
%"class.std::__uniq_ptr_impl.13" = type { %"class.std::tuple.14" }
%"class.std::tuple.14" = type { %"struct.std::_Tuple_impl.15" }
%"struct.std::_Tuple_impl.15" = type { %"struct.std::_Head_base.18" }
%"struct.std::_Head_base.18" = type { ptr }
%"struct.cvc5::internal::StatisticBaseValue.base" = type <{ ptr, i8 }>
%"class.std::vector.291" = type { %"struct.std::_Vector_base.292" }
%"struct.std::_Vector_base.292" = type { %"struct.std::_Vector_base<unsigned long, std::allocator<unsigned long>>::_Vector_impl" }
%"struct.std::_Vector_base<unsigned long, std::allocator<unsigned long>>::_Vector_impl" = type { %"struct.std::_Vector_base<unsigned long, std::allocator<unsigned long>>::_Vector_impl_data" }
%"struct.std::_Vector_base<unsigned long, std::allocator<unsigned long>>::_Vector_impl_data" = type { ptr, ptr, ptr }
%"struct.cvc5::internal::StatisticHistogramValue.322" = type { %"struct.cvc5::internal::StatisticBaseValue.base", %"class.std::vector.291", i64 }

; Function Attrs: mustprogress nounwind uwtable
define linkonce_odr hidden noundef nonnull align 8 dereferenceable(8) ptr @_ZNSt10_Head_baseILm0EPN4cvc58internal15ResourceManager10StatisticsELb0EE7_M_headERKS5_(ptr noundef nonnull align 8 dereferenceable(8) %0) #6 comdat align 2 {
  %2 = alloca ptr, align 8
  store ptr %0, ptr %2, align 8, !tbaa !783
  %3 = load ptr, ptr %2, align 8, !tbaa !783
  %4 = getelementptr inbounds nuw %"struct.std::_Head_base.18", ptr %3, i32 0, i32 0
  ret ptr %4
}

; Function Attrs: mustprogress nounwind uwtable
define linkonce_odr hidden noundef nonnull align 8 dereferenceable(8) ptr @_ZNSt11_Tuple_implILm0EJPN4cvc58internal15ResourceManager10StatisticsESt14default_deleteIS3_EEE7_M_headERKS7_(ptr noundef nonnull align 8 dereferenceable(8) %0) #6 comdat align 2 {
  %2 = alloca ptr, align 8
  store ptr %0, ptr %2, align 8, !tbaa !779
  %3 = load ptr, ptr %2, align 8, !tbaa !779
  %4 = call noundef nonnull align 8 dereferenceable(8) ptr @_ZNSt10_Head_baseILm0EPN4cvc58internal15ResourceManager10StatisticsELb0EE7_M_headERKS5_(ptr noundef nonnull align 8 dereferenceable(8) %3) #3
  ret ptr %4
}

; Function Attrs: mustprogress nounwind uwtable
define linkonce_odr hidden noundef nonnull align 8 dereferenceable(8) ptr @_ZSt12__get_helperILm0EPN4cvc58internal15ResourceManager10StatisticsEJSt14default_deleteIS3_EEERKT0_RKSt11_Tuple_implIXT_EJS7_DpT1_EE(ptr noundef nonnull align 8 dereferenceable(8) %0) #6 comdat {
  %2 = alloca ptr, align 8
  store ptr %0, ptr %2, align 8, !tbaa !779
  %3 = load ptr, ptr %2, align 8, !tbaa !779
  %4 = call noundef nonnull align 8 dereferenceable(8) ptr @_ZNSt11_Tuple_implILm0EJPN4cvc58internal15ResourceManager10StatisticsESt14default_deleteIS3_EEE7_M_headERKS7_(ptr noundef nonnull align 8 dereferenceable(8) %3) #3
  ret ptr %4
}

; Function Attrs: mustprogress nounwind uwtable
define linkonce_odr hidden noundef nonnull align 8 dereferenceable(8) ptr @_ZSt3getILm0EJPN4cvc58internal15ResourceManager10StatisticsESt14default_deleteIS3_EEERKNSt13tuple_elementIXT_ESt5tupleIJDpT0_EEE4typeERKSB_(ptr noundef nonnull align 8 dereferenceable(8) %0) #6 comdat {
  %2 = alloca ptr, align 8
  store ptr %0, ptr %2, align 8, !tbaa !777
  %3 = load ptr, ptr %2, align 8, !tbaa !777
  %4 = call noundef nonnull align 8 dereferenceable(8) ptr @_ZSt12__get_helperILm0EPN4cvc58internal15ResourceManager10StatisticsEJSt14default_deleteIS3_EEERKT0_RKSt11_Tuple_implIXT_EJS7_DpT1_EE(ptr noundef nonnull align 8 dereferenceable(8) %3) #3
  ret ptr %4
}

; Function Attrs: mustprogress nounwind uwtable
define linkonce_odr hidden noundef nonnull align 8 dereferenceable(8) ptr @_ZNSt6vectorImSaImEEixEm(ptr noundef nonnull align 8 dereferenceable(24) %0, i64 noundef %1) #6 comdat align 2 {
  %3 = alloca ptr, align 8
  %4 = alloca i64, align 8
  store ptr %0, ptr %3, align 8, !tbaa !636
  store i64 %1, ptr %4, align 8, !tbaa !11
  %5 = load ptr, ptr %3, align 8
  %6 = getelementptr inbounds nuw %"struct.std::_Vector_base.292", ptr %5, i32 0, i32 0
  %7 = getelementptr inbounds nuw %"struct.std::_Vector_base<unsigned long, std::allocator<unsigned long>>::_Vector_impl_data", ptr %6, i32 0, i32 0
  %8 = load ptr, ptr %7, align 8, !tbaa !654
  %9 = load i64, ptr %4, align 8, !tbaa !11
  %10 = getelementptr inbounds nuw i64, ptr %8, i64 %9
  ret ptr %10
}

; Function Attrs: mustprogress nounwind uwtable
define linkonce_odr hidden noundef i64 @_ZNKSt6vectorImSaImEE4sizeEv(ptr noundef nonnull align 8 dereferenceable(24) %0) #6 comdat align 2 {
  %2 = alloca ptr, align 8
  store ptr %0, ptr %2, align 8, !tbaa !636
  %3 = load ptr, ptr %2, align 8
  %4 = getelementptr inbounds nuw %"struct.std::_Vector_base.292", ptr %3, i32 0, i32 0
  %5 = getelementptr inbounds nuw %"struct.std::_Vector_base<unsigned long, std::allocator<unsigned long>>::_Vector_impl_data", ptr %4, i32 0, i32 1
  %6 = load ptr, ptr %5, align 8, !tbaa !655
  %7 = getelementptr inbounds nuw %"struct.std::_Vector_base.292", ptr %3, i32 0, i32 0
  %8 = getelementptr inbounds nuw %"struct.std::_Vector_base<unsigned long, std::allocator<unsigned long>>::_Vector_impl_data", ptr %7, i32 0, i32 0
  %9 = load ptr, ptr %8, align 8, !tbaa !654
  %10 = ptrtoint ptr %6 to i64
  %11 = ptrtoint ptr %9 to i64
  %12 = sub i64 %10, %11
  %13 = sdiv exact i64 %12, 8
  ret i64 %13
}

; Function Attrs: mustprogress nounwind uwtable
define linkonce_odr hidden noundef ptr @_ZNKSt15__uniq_ptr_implIN4cvc58internal15ResourceManager10StatisticsESt14default_deleteIS3_EE6_M_ptrEv(ptr noundef nonnull align 8 dereferenceable(8) %0) #6 comdat align 2 {
  %2 = alloca ptr, align 8
  store ptr %0, ptr %2, align 8, !tbaa !775
  %3 = load ptr, ptr %2, align 8
  %4 = getelementptr inbounds nuw %"class.std::__uniq_ptr_impl.13", ptr %3, i32 0, i32 0
  %5 = call noundef nonnull align 8 dereferenceable(8) ptr @_ZSt3getILm0EJPN4cvc58internal15ResourceManager10StatisticsESt14default_deleteIS3_EEERKNSt13tuple_elementIXT_ESt5tupleIJDpT0_EEE4typeERKSB_(ptr noundef nonnull align 8 dereferenceable(8) %4) #3
  %6 = load ptr, ptr %5, align 8, !tbaa !31
  ret ptr %6
}

; Function Attrs: mustprogress nounwind uwtable
define linkonce_odr hidden noundef i64 @_ZN4cvc58internal23StatisticHistogramValueINS0_8ResourceEE8getValueES2_(ptr noundef nonnull align 8 dereferenceable(48) %0, i32 noundef %1) #6 comdat align 2 {
  %3 = alloca i64, align 8
  %4 = alloca ptr, align 8
  %5 = alloca i32, align 4
  %6 = alloca i64, align 8
  %7 = alloca i32, align 4
  store ptr %0, ptr %4, align 8, !tbaa !747
  store i32 %1, ptr %5, align 4, !tbaa !23
  %8 = load ptr, ptr %4, align 8
  call void @llvm.lifetime.start.p0(i64 8, ptr %6) #3
  %9 = load i32, ptr %5, align 4, !tbaa !23
  %10 = sext i32 %9 to i64
  store i64 %10, ptr %6, align 8, !tbaa !11
  %11 = load i64, ptr %6, align 8, !tbaa !11
  %12 = getelementptr inbounds nuw %"struct.cvc5::internal::StatisticHistogramValue.322", ptr %8, i32 0, i32 2
  %13 = load i64, ptr %12, align 8, !tbaa !765
  %14 = icmp slt i64 %11, %13
  br i1 %14, label %15, label %16

15:                                               ; preds = %2
  store i64 0, ptr %3, align 8
  store i32 1, ptr %7, align 4
  br label %33

16:                                               ; preds = %2
  %17 = load i64, ptr %6, align 8, !tbaa !11
  %18 = getelementptr inbounds nuw %"struct.cvc5::internal::StatisticHistogramValue.322", ptr %8, i32 0, i32 2
  %19 = load i64, ptr %18, align 8, !tbaa !765
  %20 = sub nsw i64 %17, %19
  store i64 %20, ptr %6, align 8, !tbaa !11
  %21 = load i64, ptr %6, align 8, !tbaa !11
  %22 = getelementptr inbounds nuw %"struct.cvc5::internal::StatisticHistogramValue.322", ptr %8, i32 0, i32 1
  %23 = call noundef i64 @_ZNKSt6vectorImSaImEE4sizeEv(ptr noundef nonnull align 8 dereferenceable(24) %22) #3
  %24 = icmp ult i64 %21, %23
  br i1 %24, label %25, label %30

25:                                               ; preds = %16
  %26 = getelementptr inbounds nuw %"struct.cvc5::internal::StatisticHistogramValue.322", ptr %8, i32 0, i32 1
  %27 = load i64, ptr %6, align 8, !tbaa !11
  %28 = call noundef nonnull align 8 dereferenceable(8) ptr @_ZNSt6vectorImSaImEEixEm(ptr noundef nonnull align 8 dereferenceable(24) %26, i64 noundef %27) #3
  %29 = load i64, ptr %28, align 8, !tbaa !11
  br label %31

30:                                               ; preds = %16
  br label %31

31:                                               ; preds = %30, %25
  %32 = phi i64 [ %29, %25 ], [ 0, %30 ]
  store i64 %32, ptr %3, align 8
  store i32 1, ptr %7, align 4
  br label %33

33:                                               ; preds = %31, %15
  call void @llvm.lifetime.end.p0(i64 8, ptr %6) #3
  %34 = load i64, ptr %3, align 8
  ret i64 %34
}

; Function Attrs: mustprogress nounwind uwtable
define linkonce_odr hidden noundef ptr @_ZNKSt10unique_ptrIN4cvc58internal15ResourceManager10StatisticsESt14default_deleteIS3_EE3getEv(ptr noundef nonnull align 8 dereferenceable(8) %0) #6 comdat align 2 {
  %2 = alloca ptr, align 8
  store ptr %0, ptr %2, align 8, !tbaa !270
  %3 = load ptr, ptr %2, align 8
  %4 = getelementptr inbounds nuw %"class.std::unique_ptr.11", ptr %3, i32 0, i32 0
  %5 = call noundef ptr @_ZNKSt15__uniq_ptr_implIN4cvc58internal15ResourceManager10StatisticsESt14default_deleteIS3_EE6_M_ptrEv(ptr noundef nonnull align 8 dereferenceable(8) %4) #3
  ret ptr %5
}

; Function Attrs: mustprogress uwtable
define linkonce_odr hidden noundef i64 @_ZN4cvc58internal13HistogramStatINS0_8ResourceEE8getValueES2_(ptr noundef nonnull align 8 dereferenceable(8) %0, i32 noundef %1) #4 comdat align 2 {
  %3 = alloca ptr, align 8
  %4 = alloca i32, align 4
  store ptr %0, ptr %3, align 8, !tbaa !356
  store i32 %1, ptr %4, align 4, !tbaa !23
  %5 = load ptr, ptr %3, align 8
  %6 = getelementptr inbounds nuw %"class.cvc5::internal::HistogramStat.1", ptr %5, i32 0, i32 0
  %7 = load ptr, ptr %6, align 8, !tbaa !358
  %8 = load i32, ptr %4, align 4, !tbaa !23
  %9 = call noundef i64 @_ZN4cvc58internal23StatisticHistogramValueINS0_8ResourceEE8getValueES2_(ptr noundef nonnull align 8 dereferenceable(48) %7, i32 noundef %8)
  ret i64 %9
}

; Function Attrs: mustprogress nounwind uwtable
define linkonce_odr hidden noundef ptr @_ZNKSt10unique_ptrIN4cvc58internal15ResourceManager10StatisticsESt14default_deleteIS3_EEptEv(ptr noundef nonnull align 8 dereferenceable(8) %0) #6 comdat align 2 {
  %2 = alloca ptr, align 8
  store ptr %0, ptr %2, align 8, !tbaa !270
  %3 = load ptr, ptr %2, align 8
  %4 = call noundef ptr @_ZNKSt10unique_ptrIN4cvc58internal15ResourceManager10StatisticsESt14default_deleteIS3_EE3getEv(ptr noundef nonnull align 8 dereferenceable(8) %3) #3
  ret ptr %4
}

; Function Attrs: mustprogress uwtable
define hidden noundef i64 @_ZNK4cvc58internal15ResourceManager11getResourceENS0_8ResourceE(ptr noundef nonnull align 8 dereferenceable(3392) %0, i32 noundef %1) #4 align 2 {
  %3 = alloca ptr, align 8
  %4 = alloca i32, align 4
  store ptr %0, ptr %3, align 8, !tbaa !56
  store i32 %1, ptr %4, align 4, !tbaa !23
  %5 = load ptr, ptr %3, align 8
  %6 = getelementptr inbounds nuw %"class.cvc5::internal::ResourceManager", ptr %5, i32 0, i32 10
  %7 = call noundef ptr @_ZNKSt10unique_ptrIN4cvc58internal15ResourceManager10StatisticsESt14default_deleteIS3_EEptEv(ptr noundef nonnull align 8 dereferenceable(8) %6) #3
  %8 = getelementptr inbounds nuw %"struct.cvc5::internal::ResourceManager::Statistics", ptr %7, i32 0, i32 3
  %9 = load i32, ptr %4, align 4, !tbaa !23
  %10 = call noundef i64 @_ZN4cvc58internal13HistogramStatINS0_8ResourceEE8getValueES2_(ptr noundef nonnull align 8 dereferenceable(8) %8, i32 noundef %9)
  ret i64 %10
}