; Function Attrs: mustprogress nofree norecurse nosync nounwind willreturn memory(read, inaccessiblemem: none) uwtable
define hidden noundef i64 @_ZNK4cvc58internal15ResourceManager11getResourceENS0_8ResourceE(ptr noundef nonnull readonly align 8 captures(none) dereferenceable(3392) %0, i32 noundef %1) local_unnamed_addr #13 align 2 {
  %3 = getelementptr inbounds nuw i8, ptr %0, i64 3384
  %4 = load ptr, ptr %3, align 8, !tbaa !58
  %5 = getelementptr inbounds nuw i8, ptr %4, i64 24
  %6 = load ptr, ptr %5, align 8, !tbaa !286
  %7 = sext i32 %1 to i64
  %8 = getelementptr inbounds nuw i8, ptr %6, i64 40
  %9 = load i64, ptr %8, align 8, !tbaa !290
  %10 = icmp sgt i64 %9, %7
  br i1 %10, label %_ZN4cvc58internal13HistogramStatINS0_8ResourceEE8getValueES2_.exit, label %11

11:                                               ; preds = %2
  %12 = sub nsw i64 %7, %9
  %13 = getelementptr inbounds nuw i8, ptr %6, i64 16
  %14 = getelementptr inbounds nuw i8, ptr %6, i64 24
  %15 = load ptr, ptr %14, align 8, !tbaa !296
  %16 = load ptr, ptr %13, align 8, !tbaa !297
  %17 = ptrtoint ptr %15 to i64
  %18 = ptrtoint ptr %16 to i64
  %19 = sub i64 %17, %18
  %20 = ashr exact i64 %19, 3
  %21 = icmp ult i64 %12, %20
  br i1 %21, label %22, label %_ZN4cvc58internal13HistogramStatINS0_8ResourceEE8getValueES2_.exit

22:                                               ; preds = %11
  %23 = getelementptr inbounds nuw i64, ptr %16, i64 %12
  %24 = load i64, ptr %23, align 8, !tbaa !3
  br label %_ZN4cvc58internal13HistogramStatINS0_8ResourceEE8getValueES2_.exit

_ZN4cvc58internal13HistogramStatINS0_8ResourceEE8getValueES2_.exit: ; preds = %2, %11, %22
  %.0.i.i = phi i64 [ 0, %2 ], [ %24, %22 ], [ 0, %11 ]
  ret i64 %.0.i.i
}